target datalayout = "e-m:e-p270:32:32-p271:32:32-p272:64:64-i64:64-i128:128-f80:128-n8:16:32:64-S128"
target triple = "x86_64-pc-linux-gnu"

%struct.st_str_end_key = type { ptr, ptr }
%struct.re_pattern_buffer = type { ptr, ptr, ptr, i32, i32, ptr, ptr, i32, i32, i32, i32, i32, i32, i32, i32, i32, ptr, ptr, i32, ptr, i32, ptr, i32, i32, i32, i32, i32, i32, ptr, ptr, [256 x i8], i32, i32, i32, ptr }
%struct.RegexExt = type { ptr, ptr, ptr, i32, i32, ptr }

; Function Attrs: nounwind uwtable
define dso_local i32 @onig_st_lookup_strend(ptr noundef %0, ptr noundef %1, ptr noundef %2, ptr noundef %3) #0 {
  %5 = alloca ptr, align 8
  %6 = alloca ptr, align 8
  %7 = alloca ptr, align 8
  %8 = alloca ptr, align 8
  %9 = alloca %struct.st_str_end_key, align 8
  store ptr %0, ptr %5, align 8, !tbaa !9
  store ptr %1, ptr %6, align 8, !tbaa !4
  store ptr %2, ptr %7, align 8, !tbaa !4
  store ptr %3, ptr %8, align 8, !tbaa !22
  call void @llvm.lifetime.start.p0(i64 16, ptr %9) #8
  %10 = load ptr, ptr %6, align 8, !tbaa !4
  %11 = getelementptr inbounds nuw %struct.st_str_end_key, ptr %9, i32 0, i32 0
  store ptr %10, ptr %11, align 8, !tbaa !19
  %12 = load ptr, ptr %7, align 8, !tbaa !4
  %13 = getelementptr inbounds nuw %struct.st_str_end_key, ptr %9, i32 0, i32 1
  store ptr %12, ptr %13, align 8, !tbaa !17
  %14 = load ptr, ptr %5, align 8, !tbaa !9
  %15 = ptrtoint ptr %9 to i64
  %16 = load ptr, ptr %8, align 8, !tbaa !22
  %17 = call i32 @onig_st_lookup(ptr noundef %14, i64 noundef %15, ptr noundef %16)
  call void @llvm.lifetime.end.p0(i64 16, ptr %9) #8
  ret i32 %17
}

; Function Attrs: nounwind uwtable
define dso_local i32 @onig_get_callout_num_by_tag(ptr noundef %0, ptr noundef %1, ptr noundef %2) #0 {
  %4 = alloca i32, align 4
  %5 = alloca ptr, align 8
  %6 = alloca ptr, align 8
  %7 = alloca ptr, align 8
  %8 = alloca i32, align 4
  %9 = alloca ptr, align 8
  %10 = alloca i64, align 8
  %11 = alloca i32, align 4
  store ptr %0, ptr %5, align 8, !tbaa !33
  store ptr %1, ptr %6, align 8, !tbaa !4
  store ptr %2, ptr %7, align 8, !tbaa !4
  call void @llvm.lifetime.start.p0(i64 4, ptr %8) #8
  call void @llvm.lifetime.start.p0(i64 8, ptr %9) #8
  call void @llvm.lifetime.start.p0(i64 8, ptr %10) #8
  %12 = load ptr, ptr %5, align 8, !tbaa !33
  %13 = getelementptr inbounds nuw %struct.re_pattern_buffer, ptr %12, i32 0, i32 34
  %14 = load ptr, ptr %13, align 8, !tbaa !101
  store ptr %14, ptr %9, align 8, !tbaa !9
  %15 = load ptr, ptr %9, align 8, !tbaa !9
  %16 = icmp eq ptr %15, null
  br i1 %16, label %22, label %17

17:                                               ; preds = %3
  %18 = load ptr, ptr %9, align 8, !tbaa !9
  %19 = getelementptr inbounds nuw %struct.RegexExt, ptr %18, i32 0, i32 2
  %20 = load ptr, ptr %19, align 8, !tbaa !110
  %21 = icmp eq ptr %20, null
  br i1 %21, label %22, label %23

22:                                               ; preds = %17, %3
  store i32 -231, ptr %4, align 4
  store i32 1, ptr %11, align 4
  br label %36

23:                                               ; preds = %17
  %24 = load ptr, ptr %9, align 8, !tbaa !9
  %25 = getelementptr inbounds nuw %struct.RegexExt, ptr %24, i32 0, i32 2
  %26 = load ptr, ptr %25, align 8, !tbaa !110
  %27 = load ptr, ptr %6, align 8, !tbaa !4
  %28 = load ptr, ptr %7, align 8, !tbaa !4
  %29 = call i32 @onig_st_lookup_strend(ptr noundef %26, ptr noundef %27, ptr noundef %28, ptr noundef %10)
  store i32 %29, ptr %8, align 4, !tbaa !10
  %30 = load i32, ptr %8, align 4, !tbaa !10
  %31 = icmp eq i32 %30, 0
  br i1 %31, label %32, label %33

32:                                               ; preds = %23
  store i32 -231, ptr %4, align 4
  store i32 1, ptr %11, align 4
  br label %36

33:                                               ; preds = %23
  %34 = load i64, ptr %10, align 8, !tbaa !15
  %35 = trunc i64 %34 to i32
  store i32 %35, ptr %4, align 4
  store i32 1, ptr %11, align 4
  br label %36

36:                                               ; preds = %33, %32, %22
  call void @llvm.lifetime.end.p0(i64 8, ptr %10) #8
  call void @llvm.lifetime.end.p0(i64 8, ptr %9) #8
  call void @llvm.lifetime.end.p0(i64 4, ptr %8) #8
  %37 = load i32, ptr %4, align 4
  ret i32 %37
}