; Function Attrs: nounwind uwtable
define dso_local i32 @onig_get_callout_num_by_tag(ptr noundef readonly captures(none) %0, ptr noundef %1, ptr noundef %2) local_unnamed_addr #2 {
  %4 = alloca %struct.st_str_end_key, align 8
  %5 = alloca i64, align 8
  call void @llvm.lifetime.start.p0(i64 8, ptr nonnull %5) #24
  %6 = getelementptr inbounds nuw i8, ptr %0, i64 448
  %7 = load ptr, ptr %6, align 8, !tbaa !89
  %8 = icmp eq ptr %7, null
  br i1 %8, label %21, label %9

9:                                                ; preds = %3
  %10 = getelementptr inbounds nuw i8, ptr %7, i64 16
  %11 = load ptr, ptr %10, align 8, !tbaa !100
  %12 = icmp eq ptr %11, null
  br i1 %12, label %21, label %13

13:                                               ; preds = %9
  call void @llvm.lifetime.start.p0(i64 16, ptr nonnull %4) #24
  store ptr %1, ptr %4, align 8, !tbaa !16
  %14 = getelementptr inbounds nuw i8, ptr %4, i64 8
  store ptr %2, ptr %14, align 8, !tbaa !13
  %15 = ptrtoint ptr %4 to i64
  %16 = call i32 @onig_st_lookup(ptr noundef nonnull %11, i64 noundef %15, ptr noundef nonnull %5) #24
  call void @llvm.lifetime.end.p0(i64 16, ptr nonnull %4) #24
  %17 = icmp eq i32 %16, 0
  br i1 %17, label %21, label %18

18:                                               ; preds = %13
  %19 = load i64, ptr %5, align 8, !tbaa !101
  %20 = trunc i64 %19 to i32
  br label %21

21:                                               ; preds = %13, %3, %9, %18
  %.0 = phi i32 [ %20, %18 ], [ -231, %9 ], [ -231, %3 ], [ -231, %13 ]
  call void @llvm.lifetime.end.p0(i64 8, ptr nonnull %5) #24
  ret i32 %.0
}